; ModuleID = 'source-C-CXX/7/572.c'
source_filename = "source-C-CXX/7/572.c"
target datalayout = "e-m:e-p270:32:32-p271:32:32-p272:64:64-i64:64-f80:128-n8:16:32:64-S128"
target triple = "x86_64-pc-linux-gnu"

@.str = private unnamed_addr constant [5 x i8] c"%d%d\00", align 1
@.str.1 = private unnamed_addr constant [4 x i8] c"%d \00", align 1
@.str.2 = private unnamed_addr constant [3 x i8] c"%d\00", align 1

; Function Attrs: nofree nounwind sspstrong uwtable
define dso_local i32 @main() local_unnamed_addr #0 {
  %1 = alloca i32, align 4
  %2 = alloca i32, align 4
  %3 = alloca [100 x i32], align 16
  %4 = alloca [100 x i32], align 16
  %5 = bitcast i32* %1 to i8*
  call void @llvm.lifetime.start.p0i8(i64 4, i8* nonnull %5) #4
  %6 = bitcast i32* %2 to i8*
  call void @llvm.lifetime.start.p0i8(i64 4, i8* nonnull %6) #4
  %7 = bitcast [100 x i32]* %3 to i8*
  call void @llvm.lifetime.start.p0i8(i64 400, i8* nonnull %7) #4
  %8 = bitcast [100 x i32]* %4 to i8*
  call void @llvm.lifetime.start.p0i8(i64 400, i8* nonnull %8) #4
  %9 = call i32 (i8*, ...) @__isoc99_scanf(i8* getelementptr inbounds ([5 x i8], [5 x i8]* @.str, i64 0, i64 0), i32* nonnull %1, i32* nonnull %2)
  %10 = getelementptr inbounds [100 x i32], [100 x i32]* %3, i64 0, i64 0
  %11 = load i32, i32* %1, align 4, !tbaa !5
  %12 = icmp sgt i32 %11, 0
  br i1 %12, label %13, label %21

13:                                               ; preds = %0
  %14 = zext i32 %11 to i64
  br label %15

15:                                               ; preds = %15, %13
  %16 = phi i64 [ 0, %13 ], [ %19, %15 ]
  %17 = getelementptr inbounds [100 x i32], [100 x i32]* %3, i64 0, i64 %16
  %18 = call i32 (i8*, ...) @__isoc99_scanf(i8* getelementptr inbounds ([3 x i8], [3 x i8]* @.str.2, i64 0, i64 0), i32* nonnull %17) #4
  %19 = add nuw nsw i64 %16, 1
  %20 = icmp eq i64 %19, %14
  br i1 %20, label %21, label %15, !llvm.loop !9

21:                                               ; preds = %15, %0
  %22 = getelementptr inbounds [100 x i32], [100 x i32]* %4, i64 0, i64 0
  %23 = load i32, i32* %2, align 4, !tbaa !5
  %24 = icmp sgt i32 %23, 0
  br i1 %24, label %25, label %33

25:                                               ; preds = %21
  %26 = zext i32 %23 to i64
  br label %27

27:                                               ; preds = %27, %25
  %28 = phi i64 [ 0, %25 ], [ %31, %27 ]
  %29 = getelementptr inbounds [100 x i32], [100 x i32]* %4, i64 0, i64 %28
  %30 = call i32 (i8*, ...) @__isoc99_scanf(i8* getelementptr inbounds ([3 x i8], [3 x i8]* @.str.2, i64 0, i64 0), i32* nonnull %29) #4
  %31 = add nuw nsw i64 %28, 1
  %32 = icmp eq i64 %31, %26
  br i1 %32, label %33, label %27, !llvm.loop !9

33:                                               ; preds = %27, %21
  %34 = load i32, i32* %1, align 4, !tbaa !5
  %35 = icmp sgt i32 %34, 1
  br i1 %35, label %36, label %80

36:                                               ; preds = %33, %76
  %37 = phi i32 [ %79, %76 ], [ 0, %33 ]
  %38 = phi i32 [ %77, %76 ], [ 1, %33 ]
  %39 = xor i32 %37, -1
  %40 = add i32 %34, %39
  %41 = zext i32 %40 to i64
  %42 = icmp slt i32 %38, %34
  br i1 %42, label %43, label %76

43:                                               ; preds = %36
  %44 = load i32, i32* %10, align 16, !tbaa !5
  %45 = and i64 %41, 1
  %46 = icmp eq i32 %40, 1
  br i1 %46, label %65, label %47

47:                                               ; preds = %43
  %48 = and i64 %41, 4294967294
  br label %49

49:                                               ; preds = %163, %47
  %50 = phi i32 [ %44, %47 ], [ %164, %163 ]
  %51 = phi i64 [ 0, %47 ], [ %61, %163 ]
  %52 = phi i64 [ %48, %47 ], [ %165, %163 ]
  %53 = or i64 %51, 1
  %54 = getelementptr inbounds [100 x i32], [100 x i32]* %3, i64 0, i64 %53
  %55 = load i32, i32* %54, align 4, !tbaa !5
  %56 = icmp sgt i32 %50, %55
  br i1 %56, label %57, label %59

57:                                               ; preds = %49
  %58 = getelementptr inbounds [100 x i32], [100 x i32]* %3, i64 0, i64 %51
  store i32 %55, i32* %58, align 8, !tbaa !5
  store i32 %50, i32* %54, align 4, !tbaa !5
  br label %59

59:                                               ; preds = %57, %49
  %60 = phi i32 [ %55, %49 ], [ %50, %57 ]
  %61 = add nuw nsw i64 %51, 2
  %62 = getelementptr inbounds [100 x i32], [100 x i32]* %3, i64 0, i64 %61
  %63 = load i32, i32* %62, align 8, !tbaa !5
  %64 = icmp sgt i32 %60, %63
  br i1 %64, label %161, label %163

65:                                               ; preds = %163, %43
  %66 = phi i32 [ %44, %43 ], [ %164, %163 ]
  %67 = phi i64 [ 0, %43 ], [ %61, %163 ]
  %68 = icmp eq i64 %45, 0
  br i1 %68, label %76, label %69

69:                                               ; preds = %65
  %70 = add nuw nsw i64 %67, 1
  %71 = getelementptr inbounds [100 x i32], [100 x i32]* %3, i64 0, i64 %70
  %72 = load i32, i32* %71, align 4, !tbaa !5
  %73 = icmp sgt i32 %66, %72
  br i1 %73, label %74, label %76

74:                                               ; preds = %69
  %75 = getelementptr inbounds [100 x i32], [100 x i32]* %3, i64 0, i64 %67
  store i32 %72, i32* %75, align 4, !tbaa !5
  store i32 %66, i32* %71, align 4, !tbaa !5
  br label %76

76:                                               ; preds = %65, %69, %74, %36
  %77 = add nuw nsw i32 %38, 1
  %78 = icmp eq i32 %77, %34
  %79 = add i32 %37, 1
  br i1 %78, label %80, label %36, !llvm.loop !11

80:                                               ; preds = %76, %33
  %81 = load i32, i32* %2, align 4, !tbaa !5
  %82 = icmp sgt i32 %81, 1
  br i1 %82, label %83, label %127

83:                                               ; preds = %80, %123
  %84 = phi i32 [ %126, %123 ], [ 0, %80 ]
  %85 = phi i32 [ %124, %123 ], [ 1, %80 ]
  %86 = xor i32 %84, -1
  %87 = add i32 %81, %86
  %88 = zext i32 %87 to i64
  %89 = icmp slt i32 %85, %81
  br i1 %89, label %90, label %123

90:                                               ; preds = %83
  %91 = load i32, i32* %22, align 16, !tbaa !5
  %92 = and i64 %88, 1
  %93 = icmp eq i32 %87, 1
  br i1 %93, label %112, label %94

94:                                               ; preds = %90
  %95 = and i64 %88, 4294967294
  br label %96

96:                                               ; preds = %169, %94
  %97 = phi i32 [ %91, %94 ], [ %170, %169 ]
  %98 = phi i64 [ 0, %94 ], [ %108, %169 ]
  %99 = phi i64 [ %95, %94 ], [ %171, %169 ]
  %100 = or i64 %98, 1
  %101 = getelementptr inbounds [100 x i32], [100 x i32]* %4, i64 0, i64 %100
  %102 = load i32, i32* %101, align 4, !tbaa !5
  %103 = icmp sgt i32 %97, %102
  br i1 %103, label %104, label %106

104:                                              ; preds = %96
  %105 = getelementptr inbounds [100 x i32], [100 x i32]* %4, i64 0, i64 %98
  store i32 %102, i32* %105, align 8, !tbaa !5
  store i32 %97, i32* %101, align 4, !tbaa !5
  br label %106

106:                                              ; preds = %104, %96
  %107 = phi i32 [ %102, %96 ], [ %97, %104 ]
  %108 = add nuw nsw i64 %98, 2
  %109 = getelementptr inbounds [100 x i32], [100 x i32]* %4, i64 0, i64 %108
  %110 = load i32, i32* %109, align 8, !tbaa !5
  %111 = icmp sgt i32 %107, %110
  br i1 %111, label %167, label %169

112:                                              ; preds = %169, %90
  %113 = phi i32 [ %91, %90 ], [ %170, %169 ]
  %114 = phi i64 [ 0, %90 ], [ %108, %169 ]
  %115 = icmp eq i64 %92, 0
  br i1 %115, label %123, label %116

116:                                              ; preds = %112
  %117 = add nuw nsw i64 %114, 1
  %118 = getelementptr inbounds [100 x i32], [100 x i32]* %4, i64 0, i64 %117
  %119 = load i32, i32* %118, align 4, !tbaa !5
  %120 = icmp sgt i32 %113, %119
  br i1 %120, label %121, label %123

121:                                              ; preds = %116
  %122 = getelementptr inbounds [100 x i32], [100 x i32]* %4, i64 0, i64 %114
  store i32 %119, i32* %122, align 4, !tbaa !5
  store i32 %113, i32* %118, align 4, !tbaa !5
  br label %123

123:                                              ; preds = %112, %116, %121, %83
  %124 = add nuw nsw i32 %85, 1
  %125 = icmp eq i32 %124, %81
  %126 = add i32 %84, 1
  br i1 %125, label %127, label %83, !llvm.loop !11

127:                                              ; preds = %123, %80
  %128 = icmp sgt i32 %34, 0
  br i1 %128, label %137, label %131

129:                                              ; preds = %137
  %130 = load i32, i32* %2, align 4, !tbaa !5
  br label %131

131:                                              ; preds = %129, %127
  %132 = phi i32 [ %130, %129 ], [ %81, %127 ]
  %133 = icmp sgt i32 %132, 1
  br i1 %133, label %146, label %134

134:                                              ; preds = %131
  %135 = add nsw i32 %132, -1
  %136 = sext i32 %135 to i64
  br label %156

137:                                              ; preds = %127, %137
  %138 = phi i64 [ %142, %137 ], [ 0, %127 ]
  %139 = getelementptr inbounds [100 x i32], [100 x i32]* %3, i64 0, i64 %138
  %140 = load i32, i32* %139, align 4, !tbaa !5
  %141 = call i32 (i8*, ...) @printf(i8* nonnull dereferenceable(1) getelementptr inbounds ([4 x i8], [4 x i8]* @.str.1, i64 0, i64 0), i32 %140)
  %142 = add nuw nsw i64 %138, 1
  %143 = load i32, i32* %1, align 4, !tbaa !5
  %144 = sext i32 %143 to i64
  %145 = icmp slt i64 %142, %144
  br i1 %145, label %137, label %129, !llvm.loop !12

146:                                              ; preds = %131, %146
  %147 = phi i64 [ %151, %146 ], [ 0, %131 ]
  %148 = getelementptr inbounds [100 x i32], [100 x i32]* %4, i64 0, i64 %147
  %149 = load i32, i32* %148, align 4, !tbaa !5
  %150 = call i32 (i8*, ...) @printf(i8* nonnull dereferenceable(1) getelementptr inbounds ([4 x i8], [4 x i8]* @.str.1, i64 0, i64 0), i32 %149)
  %151 = add nuw nsw i64 %147, 1
  %152 = load i32, i32* %2, align 4, !tbaa !5
  %153 = add nsw i32 %152, -1
  %154 = sext i32 %153 to i64
  %155 = icmp slt i64 %151, %154
  br i1 %155, label %146, label %156, !llvm.loop !13

156:                                              ; preds = %146, %134
  %157 = phi i64 [ %136, %134 ], [ %154, %146 ]
  %158 = getelementptr inbounds [100 x i32], [100 x i32]* %4, i64 0, i64 %157
  %159 = load i32, i32* %158, align 4, !tbaa !5
  %160 = call i32 (i8*, ...) @printf(i8* nonnull dereferenceable(1) getelementptr inbounds ([3 x i8], [3 x i8]* @.str.2, i64 0, i64 0), i32 %159)
  call void @llvm.lifetime.end.p0i8(i64 400, i8* nonnull %8) #4
  call void @llvm.lifetime.end.p0i8(i64 400, i8* nonnull %7) #4
  call void @llvm.lifetime.end.p0i8(i64 4, i8* nonnull %6) #4
  call void @llvm.lifetime.end.p0i8(i64 4, i8* nonnull %5) #4
  ret i32 0

161:                                              ; preds = %59
  %162 = getelementptr inbounds [100 x i32], [100 x i32]* %3, i64 0, i64 %53
  store i32 %63, i32* %162, align 4, !tbaa !5
  store i32 %60, i32* %62, align 8, !tbaa !5
  br label %163

163:                                              ; preds = %161, %59
  %164 = phi i32 [ %63, %59 ], [ %60, %161 ]
  %165 = add i64 %52, -2
  %166 = icmp eq i64 %165, 0
  br i1 %166, label %65, label %49, !llvm.loop !14

167:                                              ; preds = %106
  %168 = getelementptr inbounds [100 x i32], [100 x i32]* %4, i64 0, i64 %100
  store i32 %110, i32* %168, align 4, !tbaa !5
  store i32 %107, i32* %109, align 8, !tbaa !5
  br label %169

169:                                              ; preds = %167, %106
  %170 = phi i32 [ %110, %106 ], [ %107, %167 ]
  %171 = add i64 %99, -2
  %172 = icmp eq i64 %171, 0
  br i1 %172, label %112, label %96, !llvm.loop !14
}

; Function Attrs: argmemonly mustprogress nofree nosync nounwind willreturn
declare void @llvm.lifetime.start.p0i8(i64 immarg, i8* nocapture) #1

; Function Attrs: nofree nounwind
declare noundef i32 @__isoc99_scanf(i8* nocapture noundef readonly, ...) local_unnamed_addr #2

; Function Attrs: nofree nounwind sspstrong uwtable
define dso_local void @shuru(i32* %0, i32 %1) local_unnamed_addr #0 {
  %3 = icmp sgt i32 %1, 0
  br i1 %3, label %4, label %12

4:                                                ; preds = %2
  %5 = zext i32 %1 to i64
  br label %6

6:                                                ; preds = %4, %6
  %7 = phi i64 [ 0, %4 ], [ %10, %6 ]
  %8 = getelementptr inbounds i32, i32* %0, i64 %7
  %9 = tail call i32 (i8*, ...) @__isoc99_scanf(i8* getelementptr inbounds ([3 x i8], [3 x i8]* @.str.2, i64 0, i64 0), i32* %8)
  %10 = add nuw nsw i64 %7, 1
  %11 = icmp eq i64 %10, %5
  br i1 %11, label %12, label %6, !llvm.loop !9

12:                                               ; preds = %6, %2
  ret void
}

; Function Attrs: nofree norecurse nosync nounwind sspstrong uwtable
define dso_local void @paixu(i32* nocapture %0, i32 %1) local_unnamed_addr #3 {
  %3 = icmp sgt i32 %1, 1
  br i1 %3, label %4, label %48

4:                                                ; preds = %2, %44
  %5 = phi i32 [ %47, %44 ], [ 0, %2 ]
  %6 = phi i32 [ %45, %44 ], [ 1, %2 ]
  %7 = xor i32 %5, -1
  %8 = add i32 %7, %1
  %9 = zext i32 %8 to i64
  %10 = icmp slt i32 %6, %1
  br i1 %10, label %11, label %44

11:                                               ; preds = %4
  %12 = load i32, i32* %0, align 4, !tbaa !5
  %13 = and i64 %9, 1
  %14 = icmp eq i32 %8, 1
  br i1 %14, label %33, label %15

15:                                               ; preds = %11
  %16 = and i64 %9, 4294967294
  br label %17

17:                                               ; preds = %51, %15
  %18 = phi i32 [ %12, %15 ], [ %52, %51 ]
  %19 = phi i64 [ 0, %15 ], [ %29, %51 ]
  %20 = phi i64 [ %16, %15 ], [ %53, %51 ]
  %21 = or i64 %19, 1
  %22 = getelementptr inbounds i32, i32* %0, i64 %21
  %23 = load i32, i32* %22, align 4, !tbaa !5
  %24 = icmp sgt i32 %18, %23
  br i1 %24, label %25, label %27

25:                                               ; preds = %17
  %26 = getelementptr inbounds i32, i32* %0, i64 %19
  store i32 %23, i32* %26, align 4, !tbaa !5
  store i32 %18, i32* %22, align 4, !tbaa !5
  br label %27

27:                                               ; preds = %17, %25
  %28 = phi i32 [ %23, %17 ], [ %18, %25 ]
  %29 = add nuw nsw i64 %19, 2
  %30 = getelementptr inbounds i32, i32* %0, i64 %29
  %31 = load i32, i32* %30, align 4, !tbaa !5
  %32 = icmp sgt i32 %28, %31
  br i1 %32, label %49, label %51

33:                                               ; preds = %51, %11
  %34 = phi i32 [ %12, %11 ], [ %52, %51 ]
  %35 = phi i64 [ 0, %11 ], [ %29, %51 ]
  %36 = icmp eq i64 %13, 0
  br i1 %36, label %44, label %37

37:                                               ; preds = %33
  %38 = add nuw nsw i64 %35, 1
  %39 = getelementptr inbounds i32, i32* %0, i64 %38
  %40 = load i32, i32* %39, align 4, !tbaa !5
  %41 = icmp sgt i32 %34, %40
  br i1 %41, label %42, label %44

42:                                               ; preds = %37
  %43 = getelementptr inbounds i32, i32* %0, i64 %35
  store i32 %40, i32* %43, align 4, !tbaa !5
  store i32 %34, i32* %39, align 4, !tbaa !5
  br label %44

44:                                               ; preds = %33, %37, %42, %4
  %45 = add nuw nsw i32 %6, 1
  %46 = icmp eq i32 %45, %1
  %47 = add i32 %5, 1
  br i1 %46, label %48, label %4, !llvm.loop !11

48:                                               ; preds = %44, %2
  ret void

49:                                               ; preds = %27
  %50 = getelementptr inbounds i32, i32* %0, i64 %21
  store i32 %31, i32* %50, align 4, !tbaa !5
  store i32 %28, i32* %30, align 4, !tbaa !5
  br label %51

51:                                               ; preds = %49, %27
  %52 = phi i32 [ %31, %27 ], [ %28, %49 ]
  %53 = add i64 %20, -2
  %54 = icmp eq i64 %53, 0
  br i1 %54, label %33, label %17, !llvm.loop !14
}

; Function Attrs: nofree nounwind
declare noundef i32 @printf(i8* nocapture noundef readonly, ...) local_unnamed_addr #2

; Function Attrs: argmemonly mustprogress nofree nosync nounwind willreturn
declare void @llvm.lifetime.end.p0i8(i64 immarg, i8* nocapture) #1


!llvm.module.flags = !{!0, !1, !2, !3}
!llvm.ident = !{!4}

!0 = !{i32 1, !"wchar_size", i32 4}
!1 = !{i32 7, !"PIC Level", i32 2}
!2 = !{i32 7, !"PIE Level", i32 2}
!3 = !{i32 7, !"uwtable", i32 1}
!4 = !{!"clang version 13.0.0"}
!5 = !{!6, !6, i64 0}
!6 = !{!"int", !7, i64 0}
!7 = !{!"omnipotent char", !8, i64 0}
!8 = !{!"Simple C/C++ TBAA"}
!9 = distinct !{!9, !10}
!10 = !{!"llvm.loop.mustprogress"}
!11 = distinct !{!11, !10}
!12 = distinct !{!12, !10}
!13 = distinct !{!13, !10}
!14 = distinct !{!14, !10}
